; Function Attrs: nounwind uwtable
define noalias noundef ptr @Kit_DsdManAlloc(i32 noundef %0, i32 noundef %1) local_unnamed_addr #0 {
  %calloc = tail call dereferenceable_or_null(48) ptr @calloc(i64 1, i64 48)
  store i32 %0, ptr %calloc, align 8, !tbaa !3
  %3 = icmp slt i32 %0, 6
  %4 = add nsw i32 %0, -5
  %5 = shl nuw i32 1, %4
  %.fr.i = freeze i32 %5
  %6 = select i1 %3, i32 1, i32 %.fr.i
  %7 = getelementptr inbounds nuw i8, ptr %calloc, i64 4
  store i32 %6, ptr %7, align 4, !tbaa !12
  %8 = sext i32 %6 to i64
  %9 = shl nsw i64 %8, 2
  %10 = add nsw i64 %9, 8
  %11 = sext i32 %0 to i64
  %12 = mul i64 %10, %11
  %13 = tail call noalias ptr @malloc(i64 noundef %12) #26
  %14 = getelementptr inbounds ptr, ptr %13, i64 %11
  %15 = icmp sgt i32 %0, 0
  br i1 %15, label %.lr.ph.preheader.i.i, label %Vec_PtrAllocSimInfo.exit.i

.lr.ph.preheader.i.i:                             ; preds = %2
  %wide.trip.count.i.i = zext nneg i32 %0 to i64
  br label %.lr.ph.i.i

.lr.ph.i.i:                                       ; preds = %.lr.ph.i.i, %.lr.ph.preheader.i.i
  %indvars.iv.i.i = phi i64 [ 0, %.lr.ph.preheader.i.i ], [ %indvars.iv.next.i.i, %.lr.ph.i.i ]
  %16 = mul nsw i64 %indvars.iv.i.i, %8
  %17 = getelementptr inbounds i32, ptr %14, i64 %16
  %18 = getelementptr inbounds nuw ptr, ptr %13, i64 %indvars.iv.i.i
  store ptr %17, ptr %18, align 8, !tbaa !13
  %indvars.iv.next.i.i = add nuw nsw i64 %indvars.iv.i.i, 1
  %exitcond.not.i.i = icmp eq i64 %indvars.iv.next.i.i, %wide.trip.count.i.i
  br i1 %exitcond.not.i.i, label %Vec_PtrAllocSimInfo.exit.i, label %.lr.ph.i.i, !llvm.loop !14

Vec_PtrAllocSimInfo.exit.i:                       ; preds = %.lr.ph.i.i, %2
  %19 = tail call noalias dereferenceable_or_null(16) ptr @malloc(i64 noundef 16) #26
  %20 = getelementptr inbounds nuw i8, ptr %19, i64 4
  store i32 %0, ptr %20, align 4, !tbaa !16
  store i32 %0, ptr %19, align 8, !tbaa !18
  %21 = getelementptr inbounds nuw i8, ptr %19, i64 8
  store ptr %13, ptr %21, align 8, !tbaa !19
  %22 = icmp sgt i32 %6, 0
  %or.cond.i = and i1 %15, %22
  br i1 %or.cond.i, label %.lr.ph33.split.us.split.us.preheader.i, label %Vec_PtrAllocTruthTables.exit

.lr.ph33.split.us.split.us.preheader.i:           ; preds = %Vec_PtrAllocSimInfo.exit.i
  %wide.trip.count77.i = zext nneg i32 %0 to i64
  %wide.trip.count67.i = zext nneg i32 %6 to i64
  br label %.lr.ph33.split.us.split.us.i

.lr.ph33.split.us.split.us.i:                     ; preds = %..loopexit27_crit_edge.us.us.i, %.lr.ph33.split.us.split.us.preheader.i
  %indvars.iv74.i = phi i64 [ 0, %.lr.ph33.split.us.split.us.preheader.i ], [ %indvars.iv.next75.i, %..loopexit27_crit_edge.us.us.i ]
  %23 = getelementptr inbounds nuw ptr, ptr %13, i64 %indvars.iv74.i
  %24 = load ptr, ptr %23, align 8, !tbaa !13
  %25 = icmp samesign ult i64 %indvars.iv74.i, 5
  br i1 %25, label %.preheader.us.us.i, label %.preheader26.us.us.i

26:                                               ; preds = %.preheader26.us.us.i, %26
  %indvars.iv64.i = phi i64 [ 0, %.preheader26.us.us.i ], [ %indvars.iv.next65.i, %26 ]
  %27 = trunc nuw nsw i64 %indvars.iv64.i to i32
  %28 = and i32 %36, %27
  %.not.us.us.i = icmp ne i32 %28, 0
  %spec.select.i = sext i1 %.not.us.us.i to i32
  %29 = getelementptr inbounds nuw i32, ptr %24, i64 %indvars.iv64.i
  store i32 %spec.select.i, ptr %29, align 4, !tbaa !20
  %indvars.iv.next65.i = add nuw nsw i64 %indvars.iv64.i, 1
  %exitcond68.not.i = icmp eq i64 %indvars.iv.next65.i, %wide.trip.count67.i
  br i1 %exitcond68.not.i, label %..loopexit27_crit_edge.us.us.i, label %26, !llvm.loop !21

..loopexit27_crit_edge.us.us.i:                   ; preds = %26, %30
  %indvars.iv.next75.i = add nuw nsw i64 %indvars.iv74.i, 1
  %exitcond78.not.i = icmp eq i64 %indvars.iv.next75.i, %wide.trip.count77.i
  br i1 %exitcond78.not.i, label %Vec_PtrAllocTruthTables.exit, label %.lr.ph33.split.us.split.us.i, !llvm.loop !22

30:                                               ; preds = %.preheader.us.us.i, %30
  %indvars.iv69.i = phi i64 [ 0, %.preheader.us.us.i ], [ %indvars.iv.next70.i, %30 ]
  %31 = getelementptr inbounds nuw i32, ptr %24, i64 %indvars.iv69.i
  store i32 %33, ptr %31, align 4, !tbaa !20
  %indvars.iv.next70.i = add nuw nsw i64 %indvars.iv69.i, 1
  %exitcond73.not.i = icmp eq i64 %indvars.iv.next70.i, %wide.trip.count67.i
  br i1 %exitcond73.not.i, label %..loopexit27_crit_edge.us.us.i, label %30, !llvm.loop !23

.preheader.us.us.i:                               ; preds = %.lr.ph33.split.us.split.us.i
  %32 = getelementptr inbounds nuw [5 x i32], ptr @__const.Kit_TruthIthVar.Masks, i64 0, i64 %indvars.iv74.i
  %33 = load i32, ptr %32, align 4, !tbaa !20
  br label %30

.preheader26.us.us.i:                             ; preds = %.lr.ph33.split.us.split.us.i
  %34 = trunc i64 %indvars.iv74.i to i32
  %35 = add i32 %34, -5
  %36 = shl nuw i32 1, %35
  br label %26

Vec_PtrAllocTruthTables.exit:                     ; preds = %..loopexit27_crit_edge.us.us.i, %Vec_PtrAllocSimInfo.exit.i
  %37 = getelementptr inbounds nuw i8, ptr %calloc, i64 8
  store ptr %19, ptr %37, align 8, !tbaa !24
  %38 = sext i32 %1 to i64
  %39 = mul i64 %10, %38
  %40 = tail call noalias ptr @malloc(i64 noundef %39) #26
  %41 = getelementptr inbounds ptr, ptr %40, i64 %38
  %42 = icmp sgt i32 %1, 0
  br i1 %42, label %.lr.ph.preheader.i, label %Vec_PtrAllocSimInfo.exit

.lr.ph.preheader.i:                               ; preds = %Vec_PtrAllocTruthTables.exit
  %wide.trip.count.i = zext nneg i32 %1 to i64
  br label %.lr.ph.i

.lr.ph.i:                                         ; preds = %.lr.ph.i, %.lr.ph.preheader.i
  %indvars.iv.i = phi i64 [ 0, %.lr.ph.preheader.i ], [ %indvars.iv.next.i, %.lr.ph.i ]
  %43 = mul nsw i64 %indvars.iv.i, %8
  %44 = getelementptr inbounds i32, ptr %41, i64 %43
  %45 = getelementptr inbounds nuw ptr, ptr %40, i64 %indvars.iv.i
  store ptr %44, ptr %45, align 8, !tbaa !13
  %indvars.iv.next.i = add nuw nsw i64 %indvars.iv.i, 1
  %exitcond.not.i = icmp eq i64 %indvars.iv.next.i, %wide.trip.count.i
  br i1 %exitcond.not.i, label %Vec_PtrAllocSimInfo.exit, label %.lr.ph.i, !llvm.loop !14

Vec_PtrAllocSimInfo.exit:                         ; preds = %.lr.ph.i, %Vec_PtrAllocTruthTables.exit
  %46 = tail call noalias dereferenceable_or_null(16) ptr @malloc(i64 noundef 16) #26
  %47 = getelementptr inbounds nuw i8, ptr %46, i64 4
  store i32 %1, ptr %47, align 4, !tbaa !16
  store i32 %1, ptr %46, align 8, !tbaa !18
  %48 = getelementptr inbounds nuw i8, ptr %46, i64 8
  store ptr %40, ptr %48, align 8, !tbaa !19
  %49 = getelementptr inbounds nuw i8, ptr %calloc, i64 16
  store ptr %46, ptr %49, align 8, !tbaa !25
  %50 = tail call ptr @Cloud_Init(i32 noundef 16, i32 noundef 14) #27
  %51 = getelementptr inbounds nuw i8, ptr %calloc, i64 24
  store ptr %50, ptr %51, align 8, !tbaa !26
  %52 = shl nsw i64 %10, 12
  %53 = tail call noalias ptr @malloc(i64 noundef %52) #26
  %54 = getelementptr inbounds nuw i8, ptr %53, i64 32768
  br label %.lr.ph.i15

.lr.ph.i15:                                       ; preds = %.lr.ph.i15, %Vec_PtrAllocSimInfo.exit
  %indvars.iv.i16 = phi i64 [ 0, %Vec_PtrAllocSimInfo.exit ], [ %indvars.iv.next.i17, %.lr.ph.i15 ]
  %55 = mul nsw i64 %indvars.iv.i16, %8
  %56 = getelementptr inbounds i32, ptr %54, i64 %55
  %57 = getelementptr inbounds nuw ptr, ptr %53, i64 %indvars.iv.i16
  store ptr %56, ptr %57, align 8, !tbaa !13
  %indvars.iv.next.i17 = add nuw nsw i64 %indvars.iv.i16, 1
  %exitcond.not.i18 = icmp eq i64 %indvars.iv.next.i17, 4096
  br i1 %exitcond.not.i18, label %Vec_PtrAllocSimInfo.exit19, label %.lr.ph.i15, !llvm.loop !14

Vec_PtrAllocSimInfo.exit19:                       ; preds = %.lr.ph.i15
  %58 = tail call noalias dereferenceable_or_null(16) ptr @malloc(i64 noundef 16) #26
  %59 = getelementptr inbounds nuw i8, ptr %58, i64 4
  store i32 4096, ptr %59, align 4, !tbaa !16
  store i32 4096, ptr %58, align 8, !tbaa !18
  %60 = getelementptr inbounds nuw i8, ptr %58, i64 8
  store ptr %53, ptr %60, align 8, !tbaa !19
  %61 = getelementptr inbounds nuw i8, ptr %calloc, i64 32
  store ptr %58, ptr %61, align 8, !tbaa !27
  %62 = tail call noalias dereferenceable_or_null(16) ptr @malloc(i64 noundef 16) #26
  %63 = getelementptr inbounds nuw i8, ptr %62, i64 4
  store i32 0, ptr %63, align 4, !tbaa !28
  store i32 512, ptr %62, align 8, !tbaa !31
  %64 = tail call noalias dereferenceable_or_null(2048) ptr @malloc(i64 noundef 2048) #26
  %65 = getelementptr inbounds nuw i8, ptr %62, i64 8
  store ptr %64, ptr %65, align 8, !tbaa !32
  %66 = getelementptr inbounds nuw i8, ptr %calloc, i64 40
  store ptr %62, ptr %66, align 8, !tbaa !33
  ret ptr %calloc
}